; Function Attrs: nounwind uwtable
define dso_local void @RemovePublicationById(i32 noundef %0) local_unnamed_addr #0 {
  %2 = tail call ptr @table_open(i32 noundef 6104, i32 noundef 3) #8
  %3 = zext i32 %0 to i64
  %4 = tail call ptr @SearchSysCache1(i32 noundef 51, i64 noundef %3) #8
  %.not = icmp eq ptr %4, null
  br i1 %.not, label %5, label %8

5:                                                ; preds = %1
  %6 = tail call zeroext i1 @errstart_cold(i32 noundef 21, ptr noundef null) #9
  tail call void @llvm.assume(i1 %6)
  %7 = tail call i32 (ptr, ...) @errmsg_internal(ptr noundef nonnull @.str.8, i32 noundef %0) #8
  tail call void @errfinish(ptr noundef nonnull @.str.1, i32 noundef 1560, ptr noundef nonnull @__func__.RemovePublicationById) #8
  unreachable

8:                                                ; preds = %1
  %9 = getelementptr i8, ptr %4, i64 16
  %.val = load ptr, ptr %9, align 8
  %10 = getelementptr inbounds nuw i8, ptr %.val, i64 22
  %11 = load i8, ptr %10, align 2
  %12 = zext i8 %11 to i64
  %13 = getelementptr inbounds nuw i8, ptr %.val, i64 %12
  %14 = getelementptr inbounds nuw i8, ptr %13, i64 72
  %15 = load i8, ptr %14, align 4, !range !4, !noundef !5
  %16 = trunc nuw i8 %15 to i1
  br i1 %16, label %17, label %18

17:                                               ; preds = %8
  tail call void @CacheInvalidateRelcacheAll() #8
  br label %18

18:                                               ; preds = %17, %8
  %19 = getelementptr inbounds nuw i8, ptr %4, i64 4
  tail call void @CatalogTupleDelete(ptr noundef %2, ptr noundef nonnull %19) #8
  tail call void @ReleaseSysCache(ptr noundef nonnull %4) #8
  tail call void @table_close(ptr noundef %2, i32 noundef 3) #8
  ret void
}